target datalayout = "e-m:e-p270:32:32-p271:32:32-p272:64:64-i64:64-i128:128-f80:128-n8:16:32:64-S128"
target triple = "x86_64-pc-linux-gnu"

%struct.Node = type { i32 }
%struct.ColumnDef = type { i32, ptr, ptr, ptr, i16, i8, i8, i8, i8, ptr, ptr, ptr, i8, ptr, i8, ptr, i32, ptr, ptr, i32 }

@.str.326 = private unnamed_addr constant [1 x i8] zeroinitializer, align 1

; Function Attrs: inlinehint nounwind willreturn memory(read) uwtable
define available_externally i32 @atoi(ptr noundef nonnull %0) #6 {
  %2 = alloca ptr, align 8
  store ptr %0, ptr %2, align 8
  %3 = load ptr, ptr %2, align 8
  %4 = call i64 @strtol(ptr noundef %3, ptr noundef null, i32 noundef 10) #9
  %5 = trunc i64 %4 to i32
  ret i32 %5
}

; Function Attrs: nounwind uwtable
define internal ptr @nullable_string(ptr noundef %0, i32 noundef %1) #0 {
  %3 = alloca ptr, align 8
  %4 = alloca ptr, align 8
  %5 = alloca i32, align 4
  store ptr %0, ptr %4, align 8
  store i32 %1, ptr %5, align 4
  %6 = load i32, ptr %5, align 4
  %7 = icmp eq i32 %6, 0
  br i1 %7, label %8, label %9

8:                                                ; preds = %2
  store ptr null, ptr %3, align 8
  br label %30

9:                                                ; preds = %2
  %10 = load i32, ptr %5, align 4
  %11 = icmp eq i32 %10, 2
  br i1 %11, label %12, label %26

12:                                               ; preds = %9
  %13 = load ptr, ptr %4, align 8
  %14 = getelementptr inbounds i8, ptr %13, i64 0
  %15 = load i8, ptr %14, align 1
  %16 = sext i8 %15 to i32
  %17 = icmp eq i32 %16, 34
  br i1 %17, label %18, label %26

18:                                               ; preds = %12
  %19 = load ptr, ptr %4, align 8
  %20 = getelementptr inbounds i8, ptr %19, i64 1
  %21 = load i8, ptr %20, align 1
  %22 = sext i8 %21 to i32
  %23 = icmp eq i32 %22, 34
  br i1 %23, label %24, label %26

24:                                               ; preds = %18
  %25 = call ptr @pstrdup(ptr noundef @.str.326)
  store ptr %25, ptr %3, align 8
  br label %30

26:                                               ; preds = %18, %12, %9
  %27 = load ptr, ptr %4, align 8
  %28 = load i32, ptr %5, align 4
  %29 = call ptr @debackslash(ptr noundef %27, i32 noundef %28)
  store ptr %29, ptr %3, align 8
  br label %30

30:                                               ; preds = %26, %24, %8
  %31 = load ptr, ptr %3, align 8
  ret ptr %31
}

; Function Attrs: inlinehint nounwind uwtable
define internal ptr @newNode(i64 noundef %0, i32 noundef %1) #7 {
  %3 = alloca i64, align 8
  %4 = alloca i32, align 4
  %5 = alloca ptr, align 8
  store i64 %0, ptr %3, align 8
  store i32 %1, ptr %4, align 4
  call void @llvm.lifetime.start.p0(i64 8, ptr %5) #9
  %6 = load i64, ptr %3, align 8
  %7 = call ptr @palloc0(i64 noundef %6)
  store ptr %7, ptr %5, align 8
  %8 = load i32, ptr %4, align 4
  %9 = load ptr, ptr %5, align 8
  %10 = getelementptr inbounds nuw %struct.Node, ptr %9, i32 0, i32 0
  store i32 %8, ptr %10, align 4
  %11 = load ptr, ptr %5, align 8
  call void @llvm.lifetime.end.p0(i64 8, ptr %5) #9
  ret ptr %11
}

; Function Attrs: nounwind uwtable
define internal ptr @_readColumnDef() #0 {
  %1 = alloca ptr, align 8
  %2 = alloca ptr, align 8
  %3 = alloca i32, align 4
  call void @llvm.lifetime.start.p0(i64 8, ptr %1) #9
  %4 = call ptr @newNode(i64 noundef 128, i32 noundef 90)
  store ptr %4, ptr %1, align 8
  call void @llvm.lifetime.start.p0(i64 8, ptr %2) #9
  call void @llvm.lifetime.start.p0(i64 4, ptr %3) #9
  %5 = call ptr @pg_strtok(ptr noundef %3)
  store ptr %5, ptr %2, align 8
  %6 = call ptr @pg_strtok(ptr noundef %3)
  store ptr %6, ptr %2, align 8
  %7 = load ptr, ptr %2, align 8
  %8 = load i32, ptr %3, align 4
  %9 = call ptr @nullable_string(ptr noundef %7, i32 noundef %8)
  %10 = load ptr, ptr %1, align 8
  %11 = getelementptr inbounds nuw %struct.ColumnDef, ptr %10, i32 0, i32 1
  store ptr %9, ptr %11, align 8
  %12 = call ptr @pg_strtok(ptr noundef %3)
  store ptr %12, ptr %2, align 8
  %13 = call ptr @nodeRead(ptr noundef null, i32 noundef 0)
  %14 = load ptr, ptr %1, align 8
  %15 = getelementptr inbounds nuw %struct.ColumnDef, ptr %14, i32 0, i32 2
  store ptr %13, ptr %15, align 8
  %16 = call ptr @pg_strtok(ptr noundef %3)
  store ptr %16, ptr %2, align 8
  %17 = call ptr @pg_strtok(ptr noundef %3)
  store ptr %17, ptr %2, align 8
  %18 = load ptr, ptr %2, align 8
  %19 = load i32, ptr %3, align 4
  %20 = call ptr @nullable_string(ptr noundef %18, i32 noundef %19)
  %21 = load ptr, ptr %1, align 8
  %22 = getelementptr inbounds nuw %struct.ColumnDef, ptr %21, i32 0, i32 3
  store ptr %20, ptr %22, align 8
  %23 = call ptr @pg_strtok(ptr noundef %3)
  store ptr %23, ptr %2, align 8
  %24 = call ptr @pg_strtok(ptr noundef %3)
  store ptr %24, ptr %2, align 8
  %25 = load ptr, ptr %2, align 8
  %26 = call i32 @atoi(ptr noundef %25) #11
  %27 = trunc i32 %26 to i16
  %28 = load ptr, ptr %1, align 8
  %29 = getelementptr inbounds nuw %struct.ColumnDef, ptr %28, i32 0, i32 4
  store i16 %27, ptr %29, align 8
  %30 = call ptr @pg_strtok(ptr noundef %3)
  store ptr %30, ptr %2, align 8
  %31 = call ptr @pg_strtok(ptr noundef %3)
  store ptr %31, ptr %2, align 8
  %32 = load ptr, ptr %2, align 8
  %33 = load i8, ptr %32, align 1
  %34 = sext i8 %33 to i32
  %35 = icmp eq i32 %34, 116
  %36 = select i1 %35, i32 1, i32 0
  %37 = icmp ne i32 %36, 0
  %38 = load ptr, ptr %1, align 8
  %39 = getelementptr inbounds nuw %struct.ColumnDef, ptr %38, i32 0, i32 5
  %40 = zext i1 %37 to i8
  store i8 %40, ptr %39, align 2
  %41 = call ptr @pg_strtok(ptr noundef %3)
  store ptr %41, ptr %2, align 8
  %42 = call ptr @pg_strtok(ptr noundef %3)
  store ptr %42, ptr %2, align 8
  %43 = load ptr, ptr %2, align 8
  %44 = load i8, ptr %43, align 1
  %45 = sext i8 %44 to i32
  %46 = icmp eq i32 %45, 116
  %47 = select i1 %46, i32 1, i32 0
  %48 = icmp ne i32 %47, 0
  %49 = load ptr, ptr %1, align 8
  %50 = getelementptr inbounds nuw %struct.ColumnDef, ptr %49, i32 0, i32 6
  %51 = zext i1 %48 to i8
  store i8 %51, ptr %50, align 1
  %52 = call ptr @pg_strtok(ptr noundef %3)
  store ptr %52, ptr %2, align 8
  %53 = call ptr @pg_strtok(ptr noundef %3)
  store ptr %53, ptr %2, align 8
  %54 = load ptr, ptr %2, align 8
  %55 = load i8, ptr %54, align 1
  %56 = sext i8 %55 to i32
  %57 = icmp eq i32 %56, 116
  %58 = select i1 %57, i32 1, i32 0
  %59 = icmp ne i32 %58, 0
  %60 = load ptr, ptr %1, align 8
  %61 = getelementptr inbounds nuw %struct.ColumnDef, ptr %60, i32 0, i32 7
  %62 = zext i1 %59 to i8
  store i8 %62, ptr %61, align 4
  %63 = call ptr @pg_strtok(ptr noundef %3)
  store ptr %63, ptr %2, align 8
  %64 = call ptr @pg_strtok(ptr noundef %3)
  store ptr %64, ptr %2, align 8
  %65 = load i32, ptr %3, align 4
  %66 = icmp eq i32 %65, 0
  br i1 %66, label %67, label %68

67:                                               ; preds = %0
  br label %86

68:                                               ; preds = %0
  %69 = load ptr, ptr %2, align 8
  %70 = getelementptr inbounds i8, ptr %69, i64 0
  %71 = load i8, ptr %70, align 1
  %72 = sext i8 %71 to i32
  %73 = icmp eq i32 %72, 92
  br i1 %73, label %74, label %79

74:                                               ; preds = %68
  %75 = load ptr, ptr %2, align 8
  %76 = getelementptr inbounds i8, ptr %75, i64 1
  %77 = load i8, ptr %76, align 1
  %78 = sext i8 %77 to i32
  br label %84

79:                                               ; preds = %68
  %80 = load ptr, ptr %2, align 8
  %81 = getelementptr inbounds i8, ptr %80, i64 0
  %82 = load i8, ptr %81, align 1
  %83 = sext i8 %82 to i32
  br label %84

84:                                               ; preds = %79, %74
  %85 = phi i32 [ %78, %74 ], [ %83, %79 ]
  br label %86

86:                                               ; preds = %84, %67
  %87 = phi i32 [ 0, %67 ], [ %85, %84 ]
  %88 = trunc i32 %87 to i8
  %89 = load ptr, ptr %1, align 8
  %90 = getelementptr inbounds nuw %struct.ColumnDef, ptr %89, i32 0, i32 8
  store i8 %88, ptr %90, align 1
  %91 = call ptr @pg_strtok(ptr noundef %3)
  store ptr %91, ptr %2, align 8
  %92 = call ptr @pg_strtok(ptr noundef %3)
  store ptr %92, ptr %2, align 8
  %93 = load ptr, ptr %2, align 8
  %94 = load i32, ptr %3, align 4
  %95 = call ptr @nullable_string(ptr noundef %93, i32 noundef %94)
  %96 = load ptr, ptr %1, align 8
  %97 = getelementptr inbounds nuw %struct.ColumnDef, ptr %96, i32 0, i32 9
  store ptr %95, ptr %97, align 8
  %98 = call ptr @pg_strtok(ptr noundef %3)
  store ptr %98, ptr %2, align 8
  %99 = call ptr @nodeRead(ptr noundef null, i32 noundef 0)
  %100 = load ptr, ptr %1, align 8
  %101 = getelementptr inbounds nuw %struct.ColumnDef, ptr %100, i32 0, i32 10
  store ptr %99, ptr %101, align 8
  %102 = call ptr @pg_strtok(ptr noundef %3)
  store ptr %102, ptr %2, align 8
  %103 = call ptr @nodeRead(ptr noundef null, i32 noundef 0)
  %104 = load ptr, ptr %1, align 8
  %105 = getelementptr inbounds nuw %struct.ColumnDef, ptr %104, i32 0, i32 11
  store ptr %103, ptr %105, align 8
  %106 = call ptr @pg_strtok(ptr noundef %3)
  store ptr %106, ptr %2, align 8
  %107 = call ptr @pg_strtok(ptr noundef %3)
  store ptr %107, ptr %2, align 8
  %108 = load i32, ptr %3, align 4
  %109 = icmp eq i32 %108, 0
  br i1 %109, label %110, label %111

110:                                              ; preds = %86
  br label %129

111:                                              ; preds = %86
  %112 = load ptr, ptr %2, align 8
  %113 = getelementptr inbounds i8, ptr %112, i64 0
  %114 = load i8, ptr %113, align 1
  %115 = sext i8 %114 to i32
  %116 = icmp eq i32 %115, 92
  br i1 %116, label %117, label %122

117:                                              ; preds = %111
  %118 = load ptr, ptr %2, align 8
  %119 = getelementptr inbounds i8, ptr %118, i64 1
  %120 = load i8, ptr %119, align 1
  %121 = sext i8 %120 to i32
  br label %127

122:                                              ; preds = %111
  %123 = load ptr, ptr %2, align 8
  %124 = getelementptr inbounds i8, ptr %123, i64 0
  %125 = load i8, ptr %124, align 1
  %126 = sext i8 %125 to i32
  br label %127

127:                                              ; preds = %122, %117
  %128 = phi i32 [ %121, %117 ], [ %126, %122 ]
  br label %129

129:                                              ; preds = %127, %110
  %130 = phi i32 [ 0, %110 ], [ %128, %127 ]
  %131 = trunc i32 %130 to i8
  %132 = load ptr, ptr %1, align 8
  %133 = getelementptr inbounds nuw %struct.ColumnDef, ptr %132, i32 0, i32 12
  store i8 %131, ptr %133, align 8
  %134 = call ptr @pg_strtok(ptr noundef %3)
  store ptr %134, ptr %2, align 8
  %135 = call ptr @nodeRead(ptr noundef null, i32 noundef 0)
  %136 = load ptr, ptr %1, align 8
  %137 = getelementptr inbounds nuw %struct.ColumnDef, ptr %136, i32 0, i32 13
  store ptr %135, ptr %137, align 8
  %138 = call ptr @pg_strtok(ptr noundef %3)
  store ptr %138, ptr %2, align 8
  %139 = call ptr @pg_strtok(ptr noundef %3)
  store ptr %139, ptr %2, align 8
  %140 = load i32, ptr %3, align 4
  %141 = icmp eq i32 %140, 0
  br i1 %141, label %142, label %143

142:                                              ; preds = %129
  br label %161

143:                                              ; preds = %129
  %144 = load ptr, ptr %2, align 8
  %145 = getelementptr inbounds i8, ptr %144, i64 0
  %146 = load i8, ptr %145, align 1
  %147 = sext i8 %146 to i32
  %148 = icmp eq i32 %147, 92
  br i1 %148, label %149, label %154

149:                                              ; preds = %143
  %150 = load ptr, ptr %2, align 8
  %151 = getelementptr inbounds i8, ptr %150, i64 1
  %152 = load i8, ptr %151, align 1
  %153 = sext i8 %152 to i32
  br label %159

154:                                              ; preds = %143
  %155 = load ptr, ptr %2, align 8
  %156 = getelementptr inbounds i8, ptr %155, i64 0
  %157 = load i8, ptr %156, align 1
  %158 = sext i8 %157 to i32
  br label %159

159:                                              ; preds = %154, %149
  %160 = phi i32 [ %153, %149 ], [ %158, %154 ]
  br label %161

161:                                              ; preds = %159, %142
  %162 = phi i32 [ 0, %142 ], [ %160, %159 ]
  %163 = trunc i32 %162 to i8
  %164 = load ptr, ptr %1, align 8
  %165 = getelementptr inbounds nuw %struct.ColumnDef, ptr %164, i32 0, i32 14
  store i8 %163, ptr %165, align 8
  %166 = call ptr @pg_strtok(ptr noundef %3)
  store ptr %166, ptr %2, align 8
  %167 = call ptr @nodeRead(ptr noundef null, i32 noundef 0)
  %168 = load ptr, ptr %1, align 8
  %169 = getelementptr inbounds nuw %struct.ColumnDef, ptr %168, i32 0, i32 15
  store ptr %167, ptr %169, align 8
  %170 = call ptr @pg_strtok(ptr noundef %3)
  store ptr %170, ptr %2, align 8
  %171 = call ptr @pg_strtok(ptr noundef %3)
  store ptr %171, ptr %2, align 8
  %172 = load ptr, ptr %2, align 8
  %173 = call i64 @strtoul(ptr noundef %172, ptr noundef null, i32 noundef 10) #9
  %174 = trunc i64 %173 to i32
  %175 = load ptr, ptr %1, align 8
  %176 = getelementptr inbounds nuw %struct.ColumnDef, ptr %175, i32 0, i32 16
  store i32 %174, ptr %176, align 8
  %177 = call ptr @pg_strtok(ptr noundef %3)
  store ptr %177, ptr %2, align 8
  %178 = call ptr @nodeRead(ptr noundef null, i32 noundef 0)
  %179 = load ptr, ptr %1, align 8
  %180 = getelementptr inbounds nuw %struct.ColumnDef, ptr %179, i32 0, i32 17
  store ptr %178, ptr %180, align 8
  %181 = call ptr @pg_strtok(ptr noundef %3)
  store ptr %181, ptr %2, align 8
  %182 = call ptr @nodeRead(ptr noundef null, i32 noundef 0)
  %183 = load ptr, ptr %1, align 8
  %184 = getelementptr inbounds nuw %struct.ColumnDef, ptr %183, i32 0, i32 18
  store ptr %182, ptr %184, align 8
  %185 = call ptr @pg_strtok(ptr noundef %3)
  store ptr %185, ptr %2, align 8
  %186 = call ptr @pg_strtok(ptr noundef %3)
  store ptr %186, ptr %2, align 8
  %187 = load ptr, ptr %1, align 8
  %188 = getelementptr inbounds nuw %struct.ColumnDef, ptr %187, i32 0, i32 19
  store i32 -1, ptr %188, align 8
  %189 = load ptr, ptr %1, align 8
  call void @llvm.lifetime.end.p0(i64 4, ptr %3) #9
  call void @llvm.lifetime.end.p0(i64 8, ptr %2) #9
  call void @llvm.lifetime.end.p0(i64 8, ptr %1) #9
  ret ptr %189
}