; Function Attrs: nounwind uwtable
define internal fastcc noundef ptr @_readColumnDef() unnamed_addr #0 {
  %1 = alloca i32, align 4
  %2 = tail call noundef ptr @palloc0(i64 noundef 128) #10
  store i32 90, ptr %2, align 4
  call void @llvm.lifetime.start.p0(i64 4, ptr nonnull %1) #10
  %3 = call ptr @pg_strtok(ptr noundef nonnull %1) #10
  %4 = call ptr @pg_strtok(ptr noundef nonnull %1) #10
  %5 = load i32, ptr %1, align 4
  switch i32 %5, label %15 [
    i32 0, label %nullable_string.exit
    i32 2, label %6
  ]

6:                                                ; preds = %0
  %7 = load i8, ptr %4, align 1
  %8 = icmp eq i8 %7, 34
  br i1 %8, label %9, label %15

9:                                                ; preds = %6
  %10 = getelementptr inbounds nuw i8, ptr %4, i64 1
  %11 = load i8, ptr %10, align 1
  %12 = icmp eq i8 %11, 34
  br i1 %12, label %13, label %15

13:                                               ; preds = %9
  %14 = call ptr @pstrdup(ptr noundef nonnull @.str.326) #10
  br label %nullable_string.exit

15:                                               ; preds = %9, %6, %0
  %16 = call ptr @debackslash(ptr noundef %4, i32 noundef %5) #10
  br label %nullable_string.exit

nullable_string.exit:                             ; preds = %0, %13, %15
  %.0.i = phi ptr [ %14, %13 ], [ %16, %15 ], [ null, %0 ]
  %17 = getelementptr inbounds nuw i8, ptr %2, i64 8
  store ptr %.0.i, ptr %17, align 8
  %18 = call ptr @pg_strtok(ptr noundef nonnull %1) #10
  %19 = call ptr @nodeRead(ptr noundef null, i32 noundef 0) #10
  %20 = getelementptr inbounds nuw i8, ptr %2, i64 16
  store ptr %19, ptr %20, align 8
  %21 = call ptr @pg_strtok(ptr noundef nonnull %1) #10
  %22 = call ptr @pg_strtok(ptr noundef nonnull %1) #10
  %23 = load i32, ptr %1, align 4
  switch i32 %23, label %33 [
    i32 0, label %nullable_string.exit40
    i32 2, label %24
  ]

24:                                               ; preds = %nullable_string.exit
  %25 = load i8, ptr %22, align 1
  %26 = icmp eq i8 %25, 34
  br i1 %26, label %27, label %33

27:                                               ; preds = %24
  %28 = getelementptr inbounds nuw i8, ptr %22, i64 1
  %29 = load i8, ptr %28, align 1
  %30 = icmp eq i8 %29, 34
  br i1 %30, label %31, label %33

31:                                               ; preds = %27
  %32 = call ptr @pstrdup(ptr noundef nonnull @.str.326) #10
  br label %nullable_string.exit40

33:                                               ; preds = %27, %24, %nullable_string.exit
  %34 = call ptr @debackslash(ptr noundef %22, i32 noundef %23) #10
  br label %nullable_string.exit40

nullable_string.exit40:                           ; preds = %nullable_string.exit, %31, %33
  %.0.i39 = phi ptr [ %32, %31 ], [ %34, %33 ], [ null, %nullable_string.exit ]
  %35 = getelementptr inbounds nuw i8, ptr %2, i64 24
  store ptr %.0.i39, ptr %35, align 8
  %36 = call ptr @pg_strtok(ptr noundef nonnull %1) #10
  %37 = call ptr @pg_strtok(ptr noundef nonnull %1) #10
  %38 = call i64 @strtol(ptr noundef nonnull captures(none) %37, ptr noundef null, i32 noundef 10) #10
  %39 = trunc i64 %38 to i16
  %40 = getelementptr inbounds nuw i8, ptr %2, i64 32
  store i16 %39, ptr %40, align 8
  %41 = call ptr @pg_strtok(ptr noundef nonnull %1) #10
  %42 = call ptr @pg_strtok(ptr noundef nonnull %1) #10
  %43 = load i8, ptr %42, align 1
  %44 = icmp eq i8 %43, 116
  %45 = getelementptr inbounds nuw i8, ptr %2, i64 34
  %46 = zext i1 %44 to i8
  store i8 %46, ptr %45, align 2
  %47 = call ptr @pg_strtok(ptr noundef nonnull %1) #10
  %48 = call ptr @pg_strtok(ptr noundef nonnull %1) #10
  %49 = load i8, ptr %48, align 1
  %50 = icmp eq i8 %49, 116
  %51 = getelementptr inbounds nuw i8, ptr %2, i64 35
  %52 = zext i1 %50 to i8
  store i8 %52, ptr %51, align 1
  %53 = call ptr @pg_strtok(ptr noundef nonnull %1) #10
  %54 = call ptr @pg_strtok(ptr noundef nonnull %1) #10
  %55 = load i8, ptr %54, align 1
  %56 = icmp eq i8 %55, 116
  %57 = getelementptr inbounds nuw i8, ptr %2, i64 36
  %58 = zext i1 %56 to i8
  store i8 %58, ptr %57, align 4
  %59 = call ptr @pg_strtok(ptr noundef nonnull %1) #10
  %60 = call ptr @pg_strtok(ptr noundef nonnull %1) #10
  %61 = load i32, ptr %1, align 4
  %62 = icmp eq i32 %61, 0
  br i1 %62, label %69, label %63

63:                                               ; preds = %nullable_string.exit40
  %64 = load i8, ptr %60, align 1
  %65 = icmp eq i8 %64, 92
  br i1 %65, label %66, label %69

66:                                               ; preds = %63
  %67 = getelementptr inbounds nuw i8, ptr %60, i64 1
  %68 = load i8, ptr %67, align 1
  br label %69

69:                                               ; preds = %63, %66, %nullable_string.exit40
  %70 = phi i8 [ 0, %nullable_string.exit40 ], [ %68, %66 ], [ %64, %63 ]
  %71 = getelementptr inbounds nuw i8, ptr %2, i64 37
  store i8 %70, ptr %71, align 1
  %72 = call ptr @pg_strtok(ptr noundef nonnull %1) #10
  %73 = call ptr @pg_strtok(ptr noundef nonnull %1) #10
  %74 = load i32, ptr %1, align 4
  switch i32 %74, label %84 [
    i32 0, label %nullable_string.exit42
    i32 2, label %75
  ]

75:                                               ; preds = %69
  %76 = load i8, ptr %73, align 1
  %77 = icmp eq i8 %76, 34
  br i1 %77, label %78, label %84

78:                                               ; preds = %75
  %79 = getelementptr inbounds nuw i8, ptr %73, i64 1
  %80 = load i8, ptr %79, align 1
  %81 = icmp eq i8 %80, 34
  br i1 %81, label %82, label %84

82:                                               ; preds = %78
  %83 = call ptr @pstrdup(ptr noundef nonnull @.str.326) #10
  br label %nullable_string.exit42

84:                                               ; preds = %78, %75, %69
  %85 = call ptr @debackslash(ptr noundef %73, i32 noundef %74) #10
  br label %nullable_string.exit42

nullable_string.exit42:                           ; preds = %69, %82, %84
  %.0.i41 = phi ptr [ %83, %82 ], [ %85, %84 ], [ null, %69 ]
  %86 = getelementptr inbounds nuw i8, ptr %2, i64 40
  store ptr %.0.i41, ptr %86, align 8
  %87 = call ptr @pg_strtok(ptr noundef nonnull %1) #10
  %88 = call ptr @nodeRead(ptr noundef null, i32 noundef 0) #10
  %89 = getelementptr inbounds nuw i8, ptr %2, i64 48
  store ptr %88, ptr %89, align 8
  %90 = call ptr @pg_strtok(ptr noundef nonnull %1) #10
  %91 = call ptr @nodeRead(ptr noundef null, i32 noundef 0) #10
  %92 = getelementptr inbounds nuw i8, ptr %2, i64 56
  store ptr %91, ptr %92, align 8
  %93 = call ptr @pg_strtok(ptr noundef nonnull %1) #10
  %94 = call ptr @pg_strtok(ptr noundef nonnull %1) #10
  %95 = load i32, ptr %1, align 4
  %96 = icmp eq i32 %95, 0
  br i1 %96, label %103, label %97

97:                                               ; preds = %nullable_string.exit42
  %98 = load i8, ptr %94, align 1
  %99 = icmp eq i8 %98, 92
  br i1 %99, label %100, label %103

100:                                              ; preds = %97
  %101 = getelementptr inbounds nuw i8, ptr %94, i64 1
  %102 = load i8, ptr %101, align 1
  br label %103

103:                                              ; preds = %97, %100, %nullable_string.exit42
  %104 = phi i8 [ 0, %nullable_string.exit42 ], [ %102, %100 ], [ %98, %97 ]
  %105 = getelementptr inbounds nuw i8, ptr %2, i64 64
  store i8 %104, ptr %105, align 8
  %106 = call ptr @pg_strtok(ptr noundef nonnull %1) #10
  %107 = call ptr @nodeRead(ptr noundef null, i32 noundef 0) #10
  %108 = getelementptr inbounds nuw i8, ptr %2, i64 72
  store ptr %107, ptr %108, align 8
  %109 = call ptr @pg_strtok(ptr noundef nonnull %1) #10
  %110 = call ptr @pg_strtok(ptr noundef nonnull %1) #10
  %111 = load i32, ptr %1, align 4
  %112 = icmp eq i32 %111, 0
  br i1 %112, label %119, label %113

113:                                              ; preds = %103
  %114 = load i8, ptr %110, align 1
  %115 = icmp eq i8 %114, 92
  br i1 %115, label %116, label %119

116:                                              ; preds = %113
  %117 = getelementptr inbounds nuw i8, ptr %110, i64 1
  %118 = load i8, ptr %117, align 1
  br label %119

119:                                              ; preds = %113, %116, %103
  %120 = phi i8 [ 0, %103 ], [ %118, %116 ], [ %114, %113 ]
  %121 = getelementptr inbounds nuw i8, ptr %2, i64 80
  store i8 %120, ptr %121, align 8
  %122 = call ptr @pg_strtok(ptr noundef nonnull %1) #10
  %123 = call ptr @nodeRead(ptr noundef null, i32 noundef 0) #10
  %124 = getelementptr inbounds nuw i8, ptr %2, i64 88
  store ptr %123, ptr %124, align 8
  %125 = call ptr @pg_strtok(ptr noundef nonnull %1) #10
  %126 = call ptr @pg_strtok(ptr noundef nonnull %1) #10
  %127 = call i64 @strtoul(ptr noundef captures(none) %126, ptr noundef null, i32 noundef 10) #10
  %128 = trunc i64 %127 to i32
  %129 = getelementptr inbounds nuw i8, ptr %2, i64 96
  store i32 %128, ptr %129, align 8
  %130 = call ptr @pg_strtok(ptr noundef nonnull %1) #10
  %131 = call ptr @nodeRead(ptr noundef null, i32 noundef 0) #10
  %132 = getelementptr inbounds nuw i8, ptr %2, i64 104
  store ptr %131, ptr %132, align 8
  %133 = call ptr @pg_strtok(ptr noundef nonnull %1) #10
  %134 = call ptr @nodeRead(ptr noundef null, i32 noundef 0) #10
  %135 = getelementptr inbounds nuw i8, ptr %2, i64 112
  store ptr %134, ptr %135, align 8
  %136 = call ptr @pg_strtok(ptr noundef nonnull %1) #10
  %137 = call ptr @pg_strtok(ptr noundef nonnull %1) #10
  %138 = getelementptr inbounds nuw i8, ptr %2, i64 120
  store i32 -1, ptr %138, align 8
  call void @llvm.lifetime.end.p0(i64 4, ptr nonnull %1) #10
  ret ptr %2
}